target datalayout = "e-m:e-p270:32:32-p271:32:32-p272:64:64-i64:64-i128:128-f80:128-n8:16:32:64-S128"
target triple = "x86_64-pc-linux-gnu"

; Function Attrs: nounwind uwtable
define void @swap_ij_case3(ptr noundef %0, i32 noundef %1, i32 noundef %2, i32 noundef %3) #0 {
  %5 = alloca ptr, align 8
  %6 = alloca i32, align 4
  %7 = alloca i32, align 4
  %8 = alloca i32, align 4
  %9 = alloca i32, align 4
  %10 = alloca i32, align 4
  %11 = alloca i32, align 4
  %12 = alloca i32, align 4
  %13 = alloca i32, align 4
  %14 = alloca i32, align 4
  %15 = alloca i32, align 4
  %16 = alloca ptr, align 8
  store ptr %0, ptr %5, align 8, !tbaa !3
  store i32 %1, ptr %6, align 4, !tbaa !8
  store i32 %2, ptr %7, align 4, !tbaa !8
  store i32 %3, ptr %8, align 4, !tbaa !8
  call void @llvm.lifetime.start.p0(i64 4, ptr %9) #6
  call void @llvm.lifetime.start.p0(i64 4, ptr %10) #6
  call void @llvm.lifetime.start.p0(i64 4, ptr %11) #6
  call void @llvm.lifetime.start.p0(i64 4, ptr %12) #6
  call void @llvm.lifetime.start.p0(i64 4, ptr %13) #6
  call void @llvm.lifetime.start.p0(i64 4, ptr %14) #6
  call void @llvm.lifetime.start.p0(i64 4, ptr %15) #6
  call void @llvm.lifetime.start.p0(i64 8, ptr %16) #6
  %17 = load i32, ptr %7, align 4, !tbaa !8
  %18 = sub nsw i32 %17, 5
  %19 = shl i32 1, %18
  store i32 %19, ptr %11, align 4, !tbaa !8
  %20 = load i32, ptr %8, align 4, !tbaa !8
  %21 = sub nsw i32 %20, 5
  %22 = shl i32 1, %21
  store i32 %22, ptr %12, align 4, !tbaa !8
  %23 = load i32, ptr %12, align 4, !tbaa !8
  %24 = load i32, ptr %11, align 4, !tbaa !8
  %25 = sub nsw i32 %23, %24
  %26 = sdiv i32 %25, 2
  store i32 %26, ptr %13, align 4, !tbaa !8
  %27 = load i32, ptr %6, align 4, !tbaa !8
  %28 = call i32 @Kit_TruthWordNum_64bit(i32 noundef %27)
  store i32 %28, ptr %14, align 4, !tbaa !8
  %29 = load i32, ptr %11, align 4, !tbaa !8
  %30 = sext i32 %29 to i64
  %31 = mul i64 8, %30
  %32 = udiv i64 %31, 2
  %33 = trunc i64 %32 to i32
  store i32 %33, ptr %15, align 4, !tbaa !8
  %34 = load i32, ptr %15, align 4, !tbaa !8
  %35 = sext i32 %34 to i64
  %36 = call noalias ptr @malloc(i64 noundef %35) #7
  store ptr %36, ptr %16, align 8, !tbaa !3
  %37 = load i32, ptr %12, align 4, !tbaa !8
  %38 = sdiv i32 %37, 2
  store i32 %38, ptr %10, align 4, !tbaa !8
  br label %39

39:                                               ; preds = %85, %4
  %40 = load i32, ptr %10, align 4, !tbaa !8
  %41 = load i32, ptr %14, align 4, !tbaa !8
  %42 = icmp slt i32 %40, %41
  br i1 %42, label %43, label %89

43:                                               ; preds = %39
  %44 = load i32, ptr %10, align 4, !tbaa !8
  %45 = load i32, ptr %13, align 4, !tbaa !8
  %46 = sub nsw i32 %44, %45
  store i32 %46, ptr %9, align 4, !tbaa !8
  br label %47

47:                                               ; preds = %80, %43
  %48 = load i32, ptr %9, align 4, !tbaa !8
  %49 = load i32, ptr %10, align 4, !tbaa !8
  %50 = icmp slt i32 %48, %49
  br i1 %50, label %51, label %84

51:                                               ; preds = %47
  %52 = load ptr, ptr %16, align 8, !tbaa !3
  %53 = load ptr, ptr %5, align 8, !tbaa !3
  %54 = load i32, ptr %9, align 4, !tbaa !8
  %55 = sext i32 %54 to i64
  %56 = getelementptr inbounds i64, ptr %53, i64 %55
  %57 = load i32, ptr %15, align 4, !tbaa !8
  %58 = sext i32 %57 to i64
  call void @llvm.memcpy.p0.p0.i64(ptr align 8 %52, ptr align 8 %56, i64 %58, i1 false)
  %59 = load ptr, ptr %5, align 8, !tbaa !3
  %60 = load i32, ptr %9, align 4, !tbaa !8
  %61 = sext i32 %60 to i64
  %62 = getelementptr inbounds i64, ptr %59, i64 %61
  %63 = load ptr, ptr %5, align 8, !tbaa !3
  %64 = load i32, ptr %9, align 4, !tbaa !8
  %65 = load i32, ptr %13, align 4, !tbaa !8
  %66 = add nsw i32 %64, %65
  %67 = sext i32 %66 to i64
  %68 = getelementptr inbounds i64, ptr %63, i64 %67
  %69 = load i32, ptr %15, align 4, !tbaa !8
  %70 = sext i32 %69 to i64
  call void @llvm.memcpy.p0.p0.i64(ptr align 8 %62, ptr align 8 %68, i64 %70, i1 false)
  %71 = load ptr, ptr %5, align 8, !tbaa !3
  %72 = load i32, ptr %9, align 4, !tbaa !8
  %73 = load i32, ptr %13, align 4, !tbaa !8
  %74 = add nsw i32 %72, %73
  %75 = sext i32 %74 to i64
  %76 = getelementptr inbounds i64, ptr %71, i64 %75
  %77 = load ptr, ptr %16, align 8, !tbaa !3
  %78 = load i32, ptr %15, align 4, !tbaa !8
  %79 = sext i32 %78 to i64
  call void @llvm.memcpy.p0.p0.i64(ptr align 8 %76, ptr align 8 %77, i64 %79, i1 false)
  br label %80

80:                                               ; preds = %51
  %81 = load i32, ptr %11, align 4, !tbaa !8
  %82 = load i32, ptr %9, align 4, !tbaa !8
  %83 = add nsw i32 %82, %81
  store i32 %83, ptr %9, align 4, !tbaa !8
  br label %47, !llvm.loop !16

84:                                               ; preds = %47
  br label %85

85:                                               ; preds = %84
  %86 = load i32, ptr %12, align 4, !tbaa !8
  %87 = load i32, ptr %10, align 4, !tbaa !8
  %88 = add nsw i32 %87, %86
  store i32 %88, ptr %10, align 4, !tbaa !8
  br label %39, !llvm.loop !17

89:                                               ; preds = %39
  call void @llvm.lifetime.end.p0(i64 8, ptr %16) #6
  call void @llvm.lifetime.end.p0(i64 4, ptr %15) #6
  call void @llvm.lifetime.end.p0(i64 4, ptr %14) #6
  call void @llvm.lifetime.end.p0(i64 4, ptr %13) #6
  call void @llvm.lifetime.end.p0(i64 4, ptr %12) #6
  call void @llvm.lifetime.end.p0(i64 4, ptr %11) #6
  call void @llvm.lifetime.end.p0(i64 4, ptr %10) #6
  call void @llvm.lifetime.end.p0(i64 4, ptr %9) #6
  ret void
}