; Function Attrs: nounwind uwtable
define void @swap_ij_case3(ptr noundef captures(none) %0, i32 noundef %1, i32 noundef %2, i32 noundef %3) local_unnamed_addr #0 {
  %5 = add nsw i32 %2, -5
  %6 = add nsw i32 %3, -5
  %7 = shl nuw i32 1, %6
  %8 = tail call i32 @Kit_TruthWordNum_64bit(i32 noundef %1) #5
  %9 = shl i32 4, %5
  %10 = sext i32 %9 to i64
  %11 = tail call noalias ptr @malloc(i64 noundef %10) #6
  %12 = sdiv i32 %7, 2
  %13 = icmp slt i32 %12, %8
  br i1 %13, label %.lr.ph36.preheader, label %._crit_edge37

.lr.ph36.preheader:                               ; preds = %4
  %14 = shl nuw i32 1, %5
  %15 = sub nsw i32 %7, %14
  %16 = sdiv i32 %15, 2
  %17 = sub nsw i32 %12, %16
  %18 = sext i32 %14 to i64
  %19 = sext i32 %16 to i64
  %20 = sext i32 %12 to i64
  %21 = sext i32 %7 to i64
  %22 = sext i32 %8 to i64
  %23 = icmp sgt i32 %15, 1
  %invariant.gep = getelementptr i64, ptr %0, i64 %19
  br label %.lr.ph36

.lr.ph36:                                         ; preds = %.lr.ph36.preheader, %._crit_edge
  %indvars.iv41 = phi i64 [ %20, %.lr.ph36.preheader ], [ %indvars.iv.next42, %._crit_edge ]
  %indvars.iv = phi i32 [ %17, %.lr.ph36.preheader ], [ %indvars.iv.next, %._crit_edge ]
  br i1 %23, label %.lr.ph.preheader, label %._crit_edge

.lr.ph.preheader:                                 ; preds = %.lr.ph36
  %24 = sext i32 %indvars.iv to i64
  br label %.lr.ph

.lr.ph:                                           ; preds = %.lr.ph.preheader, %.lr.ph
  %indvars.iv38 = phi i64 [ %24, %.lr.ph.preheader ], [ %indvars.iv.next39, %.lr.ph ]
  %25 = getelementptr inbounds i64, ptr %0, i64 %indvars.iv38
  tail call void @llvm.memcpy.p0.p0.i64(ptr align 8 %11, ptr align 8 %25, i64 %10, i1 false)
  %gep = getelementptr i64, ptr %invariant.gep, i64 %indvars.iv38
  tail call void @llvm.memcpy.p0.p0.i64(ptr align 8 %25, ptr align 8 %gep, i64 %10, i1 false)
  tail call void @llvm.memcpy.p0.p0.i64(ptr align 8 %gep, ptr align 8 %11, i64 %10, i1 false)
  %indvars.iv.next39 = add nsw i64 %indvars.iv38, %18
  %26 = icmp slt i64 %indvars.iv.next39, %indvars.iv41
  br i1 %26, label %.lr.ph, label %._crit_edge, !llvm.loop !11

._crit_edge:                                      ; preds = %.lr.ph, %.lr.ph36
  %indvars.iv.next42 = add nsw i64 %indvars.iv41, %21
  %27 = icmp slt i64 %indvars.iv.next42, %22
  %indvars.iv.next = add i32 %indvars.iv, %7
  br i1 %27, label %.lr.ph36, label %._crit_edge37, !llvm.loop !12

._crit_edge37:                                    ; preds = %._crit_edge, %4
  ret void
}